; ModuleID = '35/1475.c'
source_filename = "35/1475.c"
target datalayout = "e-m:e-p270:32:32-p271:32:32-p272:64:64-i64:64-f80:128-n8:16:32:64-S128"
target triple = "x86_64-pc-linux-gnu"

@.str = private unnamed_addr constant [6 x i8] c"%d,%d\00", align 1
@.str.1 = private unnamed_addr constant [3 x i8] c"%d\00", align 1
@.str.2 = private unnamed_addr constant [6 x i8] c"%d+%d\00", align 1
@.str.3 = private unnamed_addr constant [3 x i8] c"No\00", align 1

; Function Attrs: noinline nounwind uwtable
define dso_local i32 @main() #0 {
  %1 = alloca i32, align 4
  %2 = alloca i32, align 4
  %3 = alloca i32, align 4
  %4 = alloca [10 x [10 x i32]], align 16
  %5 = alloca i32, align 4
  %6 = alloca i32, align 4
  %7 = alloca [10 x [10 x i32]], align 16
  %8 = alloca i32, align 4
  %9 = alloca i32, align 4
  %10 = alloca i32, align 4
  %11 = alloca i32, align 4
  store i32 0, i32* %1, align 4
  %12 = call i32 (i8*, ...) @__isoc99_scanf(i8* getelementptr inbounds ([6 x i8], [6 x i8]* @.str, i64 0, i64 0), i32* %2, i32* %3)
  store i32 0, i32* %5, align 4
  br label %13

13:                                               ; preds = %34, %0
  %14 = load i32, i32* %5, align 4
  %15 = load i32, i32* %2, align 4
  %16 = icmp slt i32 %14, %15
  br i1 %16, label %17, label %37

17:                                               ; preds = %13
  store i32 0, i32* %6, align 4
  br label %18

18:                                               ; preds = %30, %17
  %19 = load i32, i32* %6, align 4
  %20 = load i32, i32* %3, align 4
  %21 = icmp slt i32 %19, %20
  br i1 %21, label %22, label %33

22:                                               ; preds = %18
  %23 = load i32, i32* %5, align 4
  %24 = sext i32 %23 to i64
  %25 = getelementptr inbounds [10 x [10 x i32]], [10 x [10 x i32]]* %4, i64 0, i64 %24
  %26 = load i32, i32* %6, align 4
  %27 = sext i32 %26 to i64
  %28 = getelementptr inbounds [10 x i32], [10 x i32]* %25, i64 0, i64 %27
  %29 = call i32 (i8*, ...) @__isoc99_scanf(i8* getelementptr inbounds ([3 x i8], [3 x i8]* @.str.1, i64 0, i64 0), i32* %28)
  br label %30

30:                                               ; preds = %22
  %31 = load i32, i32* %6, align 4
  %32 = add nsw i32 %31, 1
  store i32 %32, i32* %6, align 4
  br label %18

33:                                               ; preds = %18
  br label %34

34:                                               ; preds = %33
  %35 = load i32, i32* %5, align 4
  %36 = add nsw i32 %35, 1
  store i32 %36, i32* %5, align 4
  br label %13

37:                                               ; preds = %13
  store i32 0, i32* %8, align 4
  store i32 0, i32* %9, align 4
  store i32 0, i32* %10, align 4
  store i32 0, i32* %5, align 4
  br label %38

38:                                               ; preds = %65, %37
  %39 = load i32, i32* %5, align 4
  %40 = load i32, i32* %2, align 4
  %41 = icmp slt i32 %39, %40
  br i1 %41, label %42, label %68

42:                                               ; preds = %38
  store i32 0, i32* %6, align 4
  br label %43

43:                                               ; preds = %61, %42
  %44 = load i32, i32* %6, align 4
  %45 = load i32, i32* %3, align 4
  %46 = icmp slt i32 %44, %45
  br i1 %46, label %47, label %64

47:                                               ; preds = %43
  %48 = load i32, i32* %5, align 4
  %49 = sext i32 %48 to i64
  %50 = getelementptr inbounds [10 x [10 x i32]], [10 x [10 x i32]]* %4, i64 0, i64 %49
  %51 = load i32, i32* %6, align 4
  %52 = sext i32 %51 to i64
  %53 = getelementptr inbounds [10 x i32], [10 x i32]* %50, i64 0, i64 %52
  %54 = load i32, i32* %53, align 4
  %55 = load i32, i32* %5, align 4
  %56 = sext i32 %55 to i64
  %57 = getelementptr inbounds [10 x [10 x i32]], [10 x [10 x i32]]* %7, i64 0, i64 %56
  %58 = load i32, i32* %6, align 4
  %59 = sext i32 %58 to i64
  %60 = getelementptr inbounds [10 x i32], [10 x i32]* %57, i64 0, i64 %59
  store i32 %54, i32* %60, align 4
  br label %61

61:                                               ; preds = %47
  %62 = load i32, i32* %6, align 4
  %63 = add nsw i32 %62, 1
  store i32 %63, i32* %6, align 4
  br label %43

64:                                               ; preds = %43
  br label %65

65:                                               ; preds = %64
  %66 = load i32, i32* %5, align 4
  %67 = add nsw i32 %66, 1
  store i32 %67, i32* %5, align 4
  br label %38

68:                                               ; preds = %38
  store i32 0, i32* %5, align 4
  br label %69

69:                                               ; preds = %156, %68
  %70 = load i32, i32* %5, align 4
  %71 = load i32, i32* %2, align 4
  %72 = icmp slt i32 %70, %71
  br i1 %72, label %73, label %159

73:                                               ; preds = %69
  store i32 0, i32* %6, align 4
  br label %74

74:                                               ; preds = %115, %73
  %75 = load i32, i32* %6, align 4
  %76 = load i32, i32* %3, align 4
  %77 = sub nsw i32 %76, 1
  %78 = icmp slt i32 %75, %77
  br i1 %78, label %79, label %118

79:                                               ; preds = %74
  %80 = load i32, i32* %5, align 4
  %81 = sext i32 %80 to i64
  %82 = getelementptr inbounds [10 x [10 x i32]], [10 x [10 x i32]]* %7, i64 0, i64 %81
  %83 = load i32, i32* %6, align 4
  %84 = sext i32 %83 to i64
  %85 = getelementptr inbounds [10 x i32], [10 x i32]* %82, i64 0, i64 %84
  %86 = load i32, i32* %85, align 4
  %87 = load i32, i32* %5, align 4
  %88 = sext i32 %87 to i64
  %89 = getelementptr inbounds [10 x [10 x i32]], [10 x [10 x i32]]* %7, i64 0, i64 %88
  %90 = load i32, i32* %6, align 4
  %91 = add nsw i32 %90, 1
  %92 = sext i32 %91 to i64
  %93 = getelementptr inbounds [10 x i32], [10 x i32]* %89, i64 0, i64 %92
  %94 = load i32, i32* %93, align 4
  %95 = icmp sgt i32 %86, %94
  br i1 %95, label %96, label %111

96:                                               ; preds = %79
  %97 = load i32, i32* %5, align 4
  %98 = sext i32 %97 to i64
  %99 = getelementptr inbounds [10 x [10 x i32]], [10 x [10 x i32]]* %7, i64 0, i64 %98
  %100 = load i32, i32* %6, align 4
  %101 = sext i32 %100 to i64
  %102 = getelementptr inbounds [10 x i32], [10 x i32]* %99, i64 0, i64 %101
  %103 = load i32, i32* %102, align 4
  %104 = load i32, i32* %5, align 4
  %105 = sext i32 %104 to i64
  %106 = getelementptr inbounds [10 x [10 x i32]], [10 x [10 x i32]]* %7, i64 0, i64 %105
  %107 = load i32, i32* %6, align 4
  %108 = add nsw i32 %107, 1
  %109 = sext i32 %108 to i64
  %110 = getelementptr inbounds [10 x i32], [10 x i32]* %106, i64 0, i64 %109
  store i32 %103, i32* %110, align 4
  br label %114

111:                                              ; preds = %79
  %112 = load i32, i32* %6, align 4
  %113 = add nsw i32 %112, 1
  store i32 %113, i32* %8, align 4
  br label %114

114:                                              ; preds = %111, %96
  br label %115

115:                                              ; preds = %114
  %116 = load i32, i32* %6, align 4
  %117 = add nsw i32 %116, 1
  store i32 %117, i32* %6, align 4
  br label %74

118:                                              ; preds = %74
  store i32 0, i32* %11, align 4
  br label %119

119:                                              ; preds = %143, %118
  %120 = load i32, i32* %11, align 4
  %121 = load i32, i32* %2, align 4
  %122 = icmp slt i32 %120, %121
  br i1 %122, label %123, label %146

123:                                              ; preds = %119
  %124 = load i32, i32* %5, align 4
  %125 = sext i32 %124 to i64
  %126 = getelementptr inbounds [10 x [10 x i32]], [10 x [10 x i32]]* %4, i64 0, i64 %125
  %127 = load i32, i32* %8, align 4
  %128 = sext i32 %127 to i64
  %129 = getelementptr inbounds [10 x i32], [10 x i32]* %126, i64 0, i64 %128
  %130 = load i32, i32* %129, align 4
  %131 = load i32, i32* %11, align 4
  %132 = sext i32 %131 to i64
  %133 = getelementptr inbounds [10 x [10 x i32]], [10 x [10 x i32]]* %4, i64 0, i64 %132
  %134 = load i32, i32* %8, align 4
  %135 = sext i32 %134 to i64
  %136 = getelementptr inbounds [10 x i32], [10 x i32]* %133, i64 0, i64 %135
  %137 = load i32, i32* %136, align 4
  %138 = icmp sgt i32 %130, %137
  br i1 %138, label %139, label %142

139:                                              ; preds = %123
  %140 = load i32, i32* %9, align 4
  %141 = add nsw i32 %140, 1
  store i32 %141, i32* %9, align 4
  br label %142

142:                                              ; preds = %139, %123
  br label %143

143:                                              ; preds = %142
  %144 = load i32, i32* %11, align 4
  %145 = add nsw i32 %144, 1
  store i32 %145, i32* %11, align 4
  br label %119

146:                                              ; preds = %119
  %147 = load i32, i32* %9, align 4
  %148 = icmp eq i32 %147, 0
  br i1 %148, label %149, label %155

149:                                              ; preds = %146
  %150 = load i32, i32* %5, align 4
  %151 = load i32, i32* %8, align 4
  %152 = call i32 (i8*, ...) @printf(i8* getelementptr inbounds ([6 x i8], [6 x i8]* @.str.2, i64 0, i64 0), i32 %150, i32 %151)
  %153 = load i32, i32* %10, align 4
  %154 = add nsw i32 %153, 1
  store i32 %154, i32* %10, align 4
  br label %155

155:                                              ; preds = %149, %146
  br label %156

156:                                              ; preds = %155
  %157 = load i32, i32* %5, align 4
  %158 = add nsw i32 %157, 1
  store i32 %158, i32* %5, align 4
  br label %69

159:                                              ; preds = %69
  %160 = load i32, i32* %10, align 4
  %161 = icmp eq i32 %160, 0
  br i1 %161, label %162, label %164

162:                                              ; preds = %159
  %163 = call i32 (i8*, ...) @printf(i8* getelementptr inbounds ([3 x i8], [3 x i8]* @.str.3, i64 0, i64 0))
  br label %164

164:                                              ; preds = %162, %159
  ret i32 0
}

declare dso_local i32 @__isoc99_scanf(i8*, ...) #1

declare dso_local i32 @printf(i8*, ...) #1


!llvm.module.flags = !{!0}
!llvm.ident = !{!1}

!0 = !{i32 1, !"wchar_size", i32 4}
!1 = !{!"clang version 10.0.0-4ubuntu1 "}
